target datalayout = "e-m:e-p270:32:32-p271:32:32-p272:64:64-i64:64-i128:128-f80:128-n8:16:32:64-S128"
target triple = "x86_64-pc-linux-gnu"

%struct.anon = type { ptr, [15 x [15 x ptr]], [15 x [15 x ptr]], [15 x [15 x ptr]], double, double, double, double, double, double, double }

; Function Attrs: nounwind uwtable
define internal i32 @PSolve(double noundef %0, ptr noundef %1, ptr noundef %2, ptr noundef %3, ptr noundef %4, double noundef %5, double noundef %6, i32 noundef %7, ptr noundef %8) #0 {
  %10 = alloca double, align 8
  %11 = alloca ptr, align 8
  %12 = alloca ptr, align 8
  %13 = alloca ptr, align 8
  %14 = alloca ptr, align 8
  %15 = alloca double, align 8
  %16 = alloca double, align 8
  %17 = alloca i32, align 4
  %18 = alloca ptr, align 8
  %19 = alloca ptr, align 8
  %20 = alloca ptr, align 8
  %21 = alloca i32, align 4
  %22 = alloca i32, align 4
  %23 = alloca ptr, align 8
  %24 = alloca ptr, align 8
  %25 = alloca ptr, align 8
  store double %0, ptr %10, align 8, !tbaa !28
  store ptr %1, ptr %11, align 8, !tbaa !17
  store ptr %2, ptr %12, align 8, !tbaa !17
  store ptr %3, ptr %13, align 8, !tbaa !17
  store ptr %4, ptr %14, align 8, !tbaa !17
  store double %5, ptr %15, align 8, !tbaa !28
  store double %6, ptr %16, align 8, !tbaa !28
  store i32 %7, ptr %17, align 4, !tbaa !4
  store ptr %8, ptr %18, align 8, !tbaa !19
  call void @llvm.lifetime.start.p0(i64 8, ptr %19) #8
  call void @llvm.lifetime.start.p0(i64 8, ptr %20) #8
  call void @llvm.lifetime.start.p0(i64 4, ptr %21) #8
  call void @llvm.lifetime.start.p0(i64 4, ptr %22) #8
  call void @llvm.lifetime.start.p0(i64 8, ptr %23) #8
  call void @llvm.lifetime.start.p0(i64 8, ptr %24) #8
  call void @llvm.lifetime.start.p0(i64 8, ptr %25) #8
  %26 = load ptr, ptr %18, align 8, !tbaa !19
  store ptr %26, ptr %25, align 8, !tbaa !19
  %27 = load ptr, ptr %25, align 8, !tbaa !19
  %28 = getelementptr inbounds nuw %struct.anon, ptr %27, i32 0, i32 1
  %29 = getelementptr inbounds [15 x [15 x ptr]], ptr %28, i64 0, i64 0
  store ptr %29, ptr %19, align 8, !tbaa !43
  %30 = load ptr, ptr %25, align 8, !tbaa !19
  %31 = getelementptr inbounds nuw %struct.anon, ptr %30, i32 0, i32 3
  %32 = getelementptr inbounds [15 x [15 x ptr]], ptr %31, i64 0, i64 0
  store ptr %32, ptr %20, align 8, !tbaa !45
  %33 = load ptr, ptr %14, align 8, !tbaa !17
  %34 = call ptr @N_VGetArrayPointer(ptr noundef %33)
  store ptr %34, ptr %23, align 8, !tbaa !11
  %35 = load ptr, ptr %13, align 8, !tbaa !17
  %36 = load ptr, ptr %14, align 8, !tbaa !17
  call void @N_VScale(double noundef 1.000000e+00, ptr noundef %35, ptr noundef %36)
  store i32 0, ptr %21, align 4, !tbaa !4
  br label %37

37:                                               ; preds = %76, %9
  %38 = load i32, ptr %21, align 4, !tbaa !4
  %39 = icmp slt i32 %38, 15
  br i1 %39, label %40, label %79

40:                                               ; preds = %37
  store i32 0, ptr %22, align 4, !tbaa !4
  br label %41

41:                                               ; preds = %72, %40
  %42 = load i32, ptr %22, align 4, !tbaa !4
  %43 = icmp slt i32 %42, 15
  br i1 %43, label %44, label %75

44:                                               ; preds = %41
  %45 = load ptr, ptr %23, align 8, !tbaa !11
  %46 = load i32, ptr %21, align 4, !tbaa !4
  %47 = mul nsw i32 %46, 2
  %48 = add nsw i32 0, %47
  %49 = load i32, ptr %22, align 4, !tbaa !4
  %50 = mul nsw i32 %49, 2
  %51 = mul nsw i32 %50, 15
  %52 = add nsw i32 %48, %51
  %53 = sext i32 %52 to i64
  %54 = getelementptr inbounds double, ptr %45, i64 %53
  store ptr %54, ptr %24, align 8, !tbaa !11
  %55 = load ptr, ptr %19, align 8, !tbaa !43
  %56 = load i32, ptr %21, align 4, !tbaa !4
  %57 = sext i32 %56 to i64
  %58 = getelementptr inbounds [15 x ptr], ptr %55, i64 %57
  %59 = load i32, ptr %22, align 4, !tbaa !4
  %60 = sext i32 %59 to i64
  %61 = getelementptr inbounds [15 x ptr], ptr %58, i64 0, i64 %60
  %62 = load ptr, ptr %61, align 8, !tbaa !32
  %63 = load ptr, ptr %20, align 8, !tbaa !45
  %64 = load i32, ptr %21, align 4, !tbaa !4
  %65 = sext i32 %64 to i64
  %66 = getelementptr inbounds [15 x ptr], ptr %63, i64 %65
  %67 = load i32, ptr %22, align 4, !tbaa !4
  %68 = sext i32 %67 to i64
  %69 = getelementptr inbounds [15 x ptr], ptr %66, i64 0, i64 %68
  %70 = load ptr, ptr %69, align 8, !tbaa !34
  %71 = load ptr, ptr %24, align 8, !tbaa !11
  call void @SUNDlsMat_denseGETRS(ptr noundef %62, i64 noundef 2, ptr noundef %70, ptr noundef %71)
  br label %72

72:                                               ; preds = %44
  %73 = load i32, ptr %22, align 4, !tbaa !4
  %74 = add nsw i32 %73, 1
  store i32 %74, ptr %22, align 4, !tbaa !4
  br label %41

75:                                               ; preds = %41
  br label %76

76:                                               ; preds = %75
  %77 = load i32, ptr %21, align 4, !tbaa !4
  %78 = add nsw i32 %77, 1
  store i32 %78, ptr %21, align 4, !tbaa !4
  br label %37

79:                                               ; preds = %37
  call void @llvm.lifetime.end.p0(i64 8, ptr %25) #8
  call void @llvm.lifetime.end.p0(i64 8, ptr %24) #8
  call void @llvm.lifetime.end.p0(i64 8, ptr %23) #8
  call void @llvm.lifetime.end.p0(i64 4, ptr %22) #8
  call void @llvm.lifetime.end.p0(i64 4, ptr %21) #8
  call void @llvm.lifetime.end.p0(i64 8, ptr %20) #8
  call void @llvm.lifetime.end.p0(i64 8, ptr %19) #8
  ret i32 0
}