; Function Attrs: nounwind uwtable
define internal noundef i32 @PSolve(double %0, ptr readnone captures(none) %1, ptr readnone captures(none) %2, ptr noundef %3, ptr noundef %4, double %5, double %6, i32 %7, ptr noundef readonly captures(none) %8) #0 {
  %10 = getelementptr inbounds nuw i8, ptr %8, i64 8
  %11 = getelementptr inbounds nuw i8, ptr %8, i64 3608
  %12 = tail call ptr @N_VGetArrayPointer(ptr noundef %4) #11
  tail call void @N_VScale(double noundef 1.000000e+00, ptr noundef %3, ptr noundef %4) #11
  br label %.preheader

.preheader:                                       ; preds = %9, %18
  %indvars.iv23 = phi i64 [ 0, %9 ], [ %indvars.iv.next24, %18 ]
  %.idx27 = shl nsw i64 %indvars.iv23, 4
  %invariant.gep = getelementptr inbounds nuw i8, ptr %12, i64 %.idx27
  br label %13

13:                                               ; preds = %.preheader, %13
  %indvars.iv = phi i64 [ 0, %.preheader ], [ %indvars.iv.next, %13 ]
  %.idx = mul nuw nsw i64 %indvars.iv, 240
  %gep = getelementptr inbounds nuw i8, ptr %invariant.gep, i64 %.idx
  %14 = getelementptr inbounds nuw [15 x ptr], ptr %10, i64 %indvars.iv23, i64 %indvars.iv
  %15 = load ptr, ptr %14, align 8, !tbaa !10
  %16 = getelementptr inbounds nuw [15 x ptr], ptr %11, i64 %indvars.iv23, i64 %indvars.iv
  %17 = load ptr, ptr %16, align 8, !tbaa !12
  tail call void @SUNDlsMat_denseGETRS(ptr noundef %15, i64 noundef 2, ptr noundef %17, ptr noundef %gep) #11
  %indvars.iv.next = add nuw nsw i64 %indvars.iv, 1
  %exitcond.not = icmp eq i64 %indvars.iv.next, 15
  br i1 %exitcond.not, label %18, label %13

18:                                               ; preds = %13
  %indvars.iv.next24 = add nuw nsw i64 %indvars.iv23, 1
  %exitcond26.not = icmp eq i64 %indvars.iv.next24, 15
  br i1 %exitcond26.not, label %19, label %.preheader

19:                                               ; preds = %18
  ret i32 0
}